; Function Attrs: mustprogress nounwind uwtable
define internal fastcc void @_ZN12_GLOBAL__N_129environment_variable_resetterD2Ev(ptr noundef nonnull align 8 dereferenceable(56) %0) unnamed_addr #9 align 2 personality ptr @__gxx_personality_v0 {
  %2 = alloca %"struct.vcpkg::Optional.8", align 8
  %.sroa.0.0.copyload = load ptr, ptr %0, align 8
  %.sroa.2.0..sroa_idx = getelementptr inbounds nuw i8, ptr %0, i64 8
  %.sroa.2.0.copyload = load i64, ptr %.sroa.2.0..sroa_idx, align 8
  %3 = getelementptr inbounds nuw i8, ptr %0, i64 16
  store i8 0, ptr %2, align 8, !tbaa !53
  %4 = getelementptr inbounds nuw i8, ptr %2, i64 8
  store i8 0, ptr %4, align 8, !tbaa !9
  %5 = load i8, ptr %3, align 8, !tbaa !89, !range !24, !noundef !25
  %6 = trunc nuw i8 %5 to i1
  br i1 %6, label %7, label %_ZN5vcpkg8OptionalINS_11ZStringViewEEC2IRNS0_INSt7__cxx1112basic_stringIcSt11char_traitsIcESaIcEEEEETnNSt9enable_ifIXaantsr3stdE9is_same_vINSt5decayIT_E4typeES2_Esr3stdE18is_constructible_vINS_7details15OptionalStorageIS1_Lb1EEESE_EEiE4typeELi0EEEOSE_.exit

7:                                                ; preds = %1
  %8 = getelementptr inbounds nuw i8, ptr %0, i64 24
  store i8 1, ptr %2, align 8, !tbaa !53
  call void @_ZN5vcpkg10StringViewC2ERKNSt7__cxx1112basic_stringIcSt11char_traitsIcESaIcEEE(ptr noundef nonnull align 8 dereferenceable(16) %4, ptr noundef nonnull align 8 dereferenceable(32) %8) #20
  br label %_ZN5vcpkg8OptionalINS_11ZStringViewEEC2IRNS0_INSt7__cxx1112basic_stringIcSt11char_traitsIcESaIcEEEEETnNSt9enable_ifIXaantsr3stdE9is_same_vINSt5decayIT_E4typeES2_Esr3stdE18is_constructible_vINS_7details15OptionalStorageIS1_Lb1EEESE_EEiE4typeELi0EEEOSE_.exit

_ZN5vcpkg8OptionalINS_11ZStringViewEEC2IRNS0_INSt7__cxx1112basic_stringIcSt11char_traitsIcESaIcEEEEETnNSt9enable_ifIXaantsr3stdE9is_same_vINSt5decayIT_E4typeES2_Esr3stdE18is_constructible_vINS_7details15OptionalStorageIS1_Lb1EEESE_EEiE4typeELi0EEEOSE_.exit: ; preds = %7, %1
  call void @_ZN5vcpkg24set_environment_variableENS_11ZStringViewENS_8OptionalIS0_EE(ptr %.sroa.0.0.copyload, i64 %.sroa.2.0.copyload, ptr noundef nonnull %2) #20
  %9 = load i8, ptr %3, align 8, !tbaa !89, !range !24, !noundef !25
  %10 = trunc nuw i8 %9 to i1
  br i1 %10, label %11, label %_ZN5vcpkg7details19OptionalStorageDtorINSt7__cxx1112basic_stringIcSt11char_traitsIcESaIcEEELb0EED2Ev.exit

11:                                               ; preds = %_ZN5vcpkg8OptionalINS_11ZStringViewEEC2IRNS0_INSt7__cxx1112basic_stringIcSt11char_traitsIcESaIcEEEEETnNSt9enable_ifIXaantsr3stdE9is_same_vINSt5decayIT_E4typeES2_Esr3stdE18is_constructible_vINS_7details15OptionalStorageIS1_Lb1EEESE_EEiE4typeELi0EEEOSE_.exit
  %12 = getelementptr inbounds nuw i8, ptr %0, i64 24
  %13 = load ptr, ptr %12, align 8, !tbaa !91
  %14 = getelementptr inbounds nuw i8, ptr %0, i64 40
  %15 = icmp eq ptr %13, %14
  br i1 %15, label %_ZNKSt7__cxx1112basic_stringIcSt11char_traitsIcESaIcEE11_M_is_localEv.exit.thread.i.i.i, label %_ZNKSt7__cxx1112basic_stringIcSt11char_traitsIcESaIcEE11_M_is_localEv.exit.i.i.i

_ZNKSt7__cxx1112basic_stringIcSt11char_traitsIcESaIcEE11_M_is_localEv.exit.thread.i.i.i: ; preds = %11
  %16 = getelementptr inbounds nuw i8, ptr %0, i64 32
  %17 = load i64, ptr %16, align 8, !tbaa !94
  %18 = icmp ult i64 %17, 16
  call void @llvm.assume(i1 %18)
  br label %_ZN5vcpkg7details19OptionalStorageDtorINSt7__cxx1112basic_stringIcSt11char_traitsIcESaIcEEELb0EED2Ev.exit

_ZNKSt7__cxx1112basic_stringIcSt11char_traitsIcESaIcEE11_M_is_localEv.exit.i.i.i: ; preds = %11
  %19 = load i64, ptr %14, align 8, !tbaa !9
  %20 = add i64 %19, 1
  call void @_ZdlPvm(ptr noundef %13, i64 noundef %20) #22
  br label %_ZN5vcpkg7details19OptionalStorageDtorINSt7__cxx1112basic_stringIcSt11char_traitsIcESaIcEEELb0EED2Ev.exit

_ZN5vcpkg7details19OptionalStorageDtorINSt7__cxx1112basic_stringIcSt11char_traitsIcESaIcEEELb0EED2Ev.exit: ; preds = %_ZN5vcpkg8OptionalINS_11ZStringViewEEC2IRNS0_INSt7__cxx1112basic_stringIcSt11char_traitsIcESaIcEEEEETnNSt9enable_ifIXaantsr3stdE9is_same_vINSt5decayIT_E4typeES2_Esr3stdE18is_constructible_vINS_7details15OptionalStorageIS1_Lb1EEESE_EEiE4typeELi0EEEOSE_.exit, %_ZNKSt7__cxx1112basic_stringIcSt11char_traitsIcESaIcEE11_M_is_localEv.exit.thread.i.i.i, %_ZNKSt7__cxx1112basic_stringIcSt11char_traitsIcESaIcEE11_M_is_localEv.exit.i.i.i
  ret void
}